target datalayout = "e-m:e-p270:32:32-p271:32:32-p272:64:64-i64:64-i128:128-f80:128-n8:16:32:64-S128"
target triple = "x86_64-pc-linux-gnu"

%struct.object_id = type { [32 x i8], i32 }
%struct.object = type { i32, %struct.object_id }
%struct.object_info = type { ptr, ptr, ptr, ptr, ptr, ptr, i32, %union.anon }
%union.anon = type { %struct.anon }
%struct.anon = type { ptr, i64, i32 }
%struct.tag = type { %struct.object, ptr, ptr, i64 }

@the_repository = external global ptr, align 8

; Function Attrs: inlinehint nounwind uwtable
define internal i32 @repo_parse_commit(ptr noundef %0, ptr noundef %1) #5 {
  %3 = alloca ptr, align 8
  %4 = alloca ptr, align 8
  store ptr %0, ptr %3, align 8, !tbaa !36
  store ptr %1, ptr %4, align 8, !tbaa !120
  %5 = load ptr, ptr %3, align 8, !tbaa !36
  %6 = load ptr, ptr %4, align 8, !tbaa !120
  %7 = call i32 @repo_parse_commit_gently(ptr noundef %5, ptr noundef %6, i32 noundef 0)
  ret i32 %7
}

; Function Attrs: nounwind uwtable
define internal void @die_in_commit_graph_only(ptr noundef %0) #0 {
  %2 = alloca ptr, align 8
  store ptr %0, ptr %2, align 8, !tbaa !108
  %3 = call ptr @_(ptr noundef @.str.57)
  %4 = load ptr, ptr %2, align 8, !tbaa !108
  %5 = call ptr @oid_to_hex(ptr noundef %4)
  call void (ptr, ...) @die(ptr noundef %3, ptr noundef %5) #13
  unreachable
}

; Function Attrs: nounwind uwtable
define internal ptr @deref_without_lazy_fetch(ptr noundef %0, i32 noundef %1) #0 {
  %3 = alloca ptr, align 8
  %4 = alloca ptr, align 8
  %5 = alloca i32, align 4
  %6 = alloca i32, align 4
  %7 = alloca %struct.object_info, align 8
  %8 = alloca ptr, align 8
  %9 = alloca i32, align 4
  %10 = alloca ptr, align 8
  %11 = alloca ptr, align 8
  store ptr %0, ptr %4, align 8, !tbaa !108
  store i32 %1, ptr %5, align 4, !tbaa !19
  call void @llvm.lifetime.start.p0(i64 4, ptr %6) #11
  call void @llvm.lifetime.start.p0(i64 80, ptr %7) #11
  call void @llvm.memset.p0.i64(ptr align 8 %7, i8 0, i64 80, i1 false)
  %12 = getelementptr inbounds nuw %struct.object_info, ptr %7, i32 0, i32 0
  store ptr %6, ptr %12, align 8, !tbaa !188
  call void @llvm.lifetime.start.p0(i64 8, ptr %8) #11
  %13 = load ptr, ptr @the_repository, align 8, !tbaa !36
  %14 = load ptr, ptr %4, align 8, !tbaa !108
  %15 = call ptr @lookup_commit_in_graph(ptr noundef %13, ptr noundef %14)
  store ptr %15, ptr %8, align 8, !tbaa !120
  %16 = load ptr, ptr %8, align 8, !tbaa !120
  %17 = icmp ne ptr %16, null
  br i1 %17, label %18, label %31

18:                                               ; preds = %2
  %19 = load i32, ptr %5, align 4, !tbaa !19
  %20 = icmp ne i32 %19, 0
  br i1 %20, label %21, label %29

21:                                               ; preds = %18
  %22 = load ptr, ptr @the_repository, align 8, !tbaa !36
  %23 = load ptr, ptr %4, align 8, !tbaa !108
  %24 = call i32 @has_object(ptr noundef %22, ptr noundef %23, i32 noundef 0)
  %25 = icmp ne i32 %24, 0
  br i1 %25, label %28, label %26

26:                                               ; preds = %21
  %27 = load ptr, ptr %4, align 8, !tbaa !108
  call void @die_in_commit_graph_only(ptr noundef %27)
  br label %28

28:                                               ; preds = %26, %21
  br label %29

29:                                               ; preds = %28, %18
  %30 = load ptr, ptr %8, align 8, !tbaa !120
  store ptr %30, ptr %3, align 8
  store i32 1, ptr %9, align 4
  br label %94

31:                                               ; preds = %2
  br label %32

32:                                               ; preds = %74, %31
  br label %33

33:                                               ; preds = %32
  %34 = load ptr, ptr @the_repository, align 8, !tbaa !36
  %35 = load ptr, ptr %4, align 8, !tbaa !108
  %36 = call i32 @oid_object_info_extended(ptr noundef %34, ptr noundef %35, ptr noundef %7, i32 noundef 24)
  %37 = icmp ne i32 %36, 0
  br i1 %37, label %38, label %39

38:                                               ; preds = %33
  store ptr null, ptr %3, align 8
  store i32 1, ptr %9, align 4
  br label %94

39:                                               ; preds = %33
  %40 = load i32, ptr %6, align 4, !tbaa !19
  %41 = icmp eq i32 %40, 4
  br i1 %41, label %42, label %73

42:                                               ; preds = %39
  call void @llvm.lifetime.start.p0(i64 8, ptr %10) #11
  %43 = load ptr, ptr @the_repository, align 8, !tbaa !36
  %44 = load ptr, ptr %4, align 8, !tbaa !108
  %45 = call ptr @parse_object(ptr noundef %43, ptr noundef %44)
  store ptr %45, ptr %10, align 8, !tbaa !190
  %46 = load ptr, ptr %10, align 8, !tbaa !190
  %47 = getelementptr inbounds nuw %struct.tag, ptr %46, i32 0, i32 1
  %48 = load ptr, ptr %47, align 8, !tbaa !192
  %49 = icmp ne ptr %48, null
  br i1 %49, label %51, label %50

50:                                               ; preds = %42
  store ptr null, ptr %3, align 8
  store i32 1, ptr %9, align 4
  br label %70

51:                                               ; preds = %42
  %52 = load i32, ptr %5, align 4, !tbaa !19
  %53 = icmp ne i32 %52, 0
  br i1 %53, label %54, label %65

54:                                               ; preds = %51
  %55 = load ptr, ptr %10, align 8, !tbaa !190
  %56 = getelementptr inbounds nuw %struct.tag, ptr %55, i32 0, i32 0
  %57 = load i32, ptr %56, align 8
  %58 = lshr i32 %57, 4
  %59 = or i32 %58, 1
  %60 = load i32, ptr %56, align 8
  %61 = and i32 %59, 268435455
  %62 = shl i32 %61, 4
  %63 = and i32 %60, 15
  %64 = or i32 %63, %62
  store i32 %64, ptr %56, align 8
  br label %65

65:                                               ; preds = %54, %51
  %66 = load ptr, ptr %10, align 8, !tbaa !190
  %67 = getelementptr inbounds nuw %struct.tag, ptr %66, i32 0, i32 1
  %68 = load ptr, ptr %67, align 8, !tbaa !192
  %69 = getelementptr inbounds nuw %struct.object, ptr %68, i32 0, i32 1
  store ptr %69, ptr %4, align 8, !tbaa !108
  store i32 0, ptr %9, align 4
  br label %70

70:                                               ; preds = %65, %50
  call void @llvm.lifetime.end.p0(i64 8, ptr %10) #11
  %71 = load i32, ptr %9, align 4
  switch i32 %71, label %94 [
    i32 0, label %72
  ]

72:                                               ; preds = %70
  br label %74

73:                                               ; preds = %39
  br label %75

74:                                               ; preds = %72
  br label %32

75:                                               ; preds = %73
  %76 = load i32, ptr %6, align 4, !tbaa !19
  %77 = icmp eq i32 %76, 1
  br i1 %77, label %78, label %93

78:                                               ; preds = %75
  call void @llvm.lifetime.start.p0(i64 8, ptr %11) #11
  %79 = load ptr, ptr @the_repository, align 8, !tbaa !36
  %80 = load ptr, ptr %4, align 8, !tbaa !108
  %81 = call ptr @lookup_commit(ptr noundef %79, ptr noundef %80)
  store ptr %81, ptr %11, align 8, !tbaa !120
  %82 = load ptr, ptr %11, align 8, !tbaa !120
  %83 = icmp ne ptr %82, null
  br i1 %83, label %84, label %89

84:                                               ; preds = %78
  %85 = load ptr, ptr @the_repository, align 8, !tbaa !36
  %86 = load ptr, ptr %11, align 8, !tbaa !120
  %87 = call i32 @repo_parse_commit(ptr noundef %85, ptr noundef %86)
  %88 = icmp ne i32 %87, 0
  br i1 %88, label %89, label %90

89:                                               ; preds = %84, %78
  store ptr null, ptr %3, align 8
  store i32 1, ptr %9, align 4
  br label %92

90:                                               ; preds = %84
  %91 = load ptr, ptr %11, align 8, !tbaa !120
  store ptr %91, ptr %3, align 8
  store i32 1, ptr %9, align 4
  br label %92

92:                                               ; preds = %90, %89
  call void @llvm.lifetime.end.p0(i64 8, ptr %11) #11
  br label %94

93:                                               ; preds = %75
  store ptr null, ptr %3, align 8
  store i32 1, ptr %9, align 4
  br label %94

94:                                               ; preds = %93, %92, %70, %38, %29
  call void @llvm.lifetime.end.p0(i64 8, ptr %8) #11
  call void @llvm.lifetime.end.p0(i64 80, ptr %7) #11
  call void @llvm.lifetime.end.p0(i64 4, ptr %6) #11
  %95 = load ptr, ptr %3, align 8
  ret ptr %95
}