; Function Attrs: nounwind uwtable
define internal fastcc ptr @deref_without_lazy_fetch(ptr noundef %0, i32 noundef range(i32 0, 2) %1) unnamed_addr #0 {
  %3 = alloca i32, align 4
  %4 = alloca %struct.object_info, align 8
  call void @llvm.lifetime.start.p0(i64 4, ptr nonnull %3) #20
  call void @llvm.lifetime.start.p0(i64 80, ptr nonnull %4) #20
  %5 = getelementptr inbounds nuw i8, ptr %4, i64 8
  call void @llvm.memset.p0.i64(ptr noundef nonnull align 8 dereferenceable(80) %5, i8 0, i64 72, i1 false)
  store ptr %3, ptr %4, align 8, !tbaa !44
  %6 = load ptr, ptr @the_repository, align 8, !tbaa !17
  %7 = call ptr @lookup_commit_in_graph(ptr noundef %6, ptr noundef %0) #20
  %.not = icmp eq ptr %7, null
  br i1 %.not, label %.preheader, label %20

.preheader:                                       ; preds = %2
  %8 = load ptr, ptr @the_repository, align 8, !tbaa !17
  %9 = call i32 @oid_object_info_extended(ptr noundef %8, ptr noundef %0, ptr noundef nonnull %4, i32 noundef 24) #20
  %.not2332 = icmp eq i32 %9, 0
  br i1 %.not2332, label %.lr.ph, label %.thread

.lr.ph:                                           ; preds = %.preheader
  %.not27 = icmp eq i32 %1, 0
  br i1 %.not27, label %.lr.ph.split.us, label %.lr.ph.split

.lr.ph.split.us:                                  ; preds = %.lr.ph, %16
  %.01733.us = phi ptr [ %17, %16 ], [ %0, %.lr.ph ]
  %10 = load i32, ptr %3, align 4, !tbaa !15
  switch i32 %10, label %.thread [
    i32 4, label %11
    i32 1, label %.split.us
  ]

11:                                               ; preds = %.lr.ph.split.us
  %12 = load ptr, ptr @the_repository, align 8, !tbaa !17
  %13 = call ptr @parse_object(ptr noundef %12, ptr noundef %.01733.us) #20
  %14 = getelementptr inbounds nuw i8, ptr %13, i64 40
  %15 = load ptr, ptr %14, align 8, !tbaa !48
  %.not26.not.us = icmp eq ptr %15, null
  br i1 %.not26.not.us, label %.thread, label %16

16:                                               ; preds = %11
  %17 = getelementptr inbounds nuw i8, ptr %15, i64 4
  %18 = load ptr, ptr @the_repository, align 8, !tbaa !17
  %19 = call i32 @oid_object_info_extended(ptr noundef %18, ptr noundef nonnull %17, ptr noundef nonnull %4, i32 noundef 24) #20
  %.not23.us = icmp eq i32 %19, 0
  br i1 %.not23.us, label %.lr.ph.split.us, label %.thread

20:                                               ; preds = %2
  %.not28 = icmp eq i32 %1, 0
  br i1 %.not28, label %.thread, label %21

21:                                               ; preds = %20
  %22 = load ptr, ptr @the_repository, align 8, !tbaa !17
  %23 = call i32 @has_object(ptr noundef %22, ptr noundef %0, i32 noundef 0) #20
  %.not29 = icmp eq i32 %23, 0
  br i1 %.not29, label %24, label %.thread

24:                                               ; preds = %21
  %25 = call fastcc ptr @_(ptr noundef nonnull @.str.57)
  %26 = call ptr @oid_to_hex(ptr noundef %0) #20
  call void (ptr, ...) @die(ptr noundef %25, ptr noundef %26) #21
  unreachable

.lr.ph.split:                                     ; preds = %.lr.ph, %33
  %.01733 = phi ptr [ %36, %33 ], [ %0, %.lr.ph ]
  %27 = load i32, ptr %3, align 4, !tbaa !15
  switch i32 %27, label %.thread [
    i32 4, label %28
    i32 1, label %.split.us
  ]

28:                                               ; preds = %.lr.ph.split
  %29 = load ptr, ptr @the_repository, align 8, !tbaa !17
  %30 = call ptr @parse_object(ptr noundef %29, ptr noundef %.01733) #20
  %31 = getelementptr inbounds nuw i8, ptr %30, i64 40
  %32 = load ptr, ptr %31, align 8, !tbaa !48
  %.not26.not = icmp eq ptr %32, null
  br i1 %.not26.not, label %.thread, label %33

33:                                               ; preds = %28
  %34 = load i32, ptr %30, align 8
  %35 = or i32 %34, 16
  store i32 %35, ptr %30, align 8
  %36 = getelementptr inbounds nuw i8, ptr %32, i64 4
  %37 = load ptr, ptr @the_repository, align 8, !tbaa !17
  %38 = call i32 @oid_object_info_extended(ptr noundef %37, ptr noundef nonnull %36, ptr noundef nonnull %4, i32 noundef 24) #20
  %.not23 = icmp eq i32 %38, 0
  br i1 %.not23, label %.lr.ph.split, label %.thread

.split.us:                                        ; preds = %.lr.ph.split, %.lr.ph.split.us
  %.us-phi = phi ptr [ %.01733.us, %.lr.ph.split.us ], [ %.01733, %.lr.ph.split ]
  %39 = load ptr, ptr @the_repository, align 8, !tbaa !17
  %40 = call ptr @lookup_commit(ptr noundef %39, ptr noundef %.us-phi) #20
  %.not24 = icmp eq ptr %40, null
  br i1 %.not24, label %.thread, label %41

41:                                               ; preds = %.split.us
  %42 = load ptr, ptr @the_repository, align 8, !tbaa !17
  %43 = call i32 @repo_parse_commit_gently(ptr noundef %42, ptr noundef nonnull %40, i32 noundef 0) #20
  %.not25 = icmp eq i32 %43, 0
  %spec.select = select i1 %.not25, ptr %40, ptr null
  br label %.thread

.thread:                                          ; preds = %33, %.lr.ph.split, %28, %16, %.lr.ph.split.us, %11, %.preheader, %41, %.split.us, %20, %21
  %.0 = phi ptr [ %7, %21 ], [ %7, %20 ], [ null, %.split.us ], [ %spec.select, %41 ], [ null, %.preheader ], [ null, %11 ], [ null, %.lr.ph.split.us ], [ null, %16 ], [ null, %28 ], [ null, %.lr.ph.split ], [ null, %33 ]
  call void @llvm.lifetime.end.p0(i64 80, ptr nonnull %4) #20
  call void @llvm.lifetime.end.p0(i64 4, ptr nonnull %3) #20
  ret ptr %.0
}